target datalayout = "e-m:e-p270:32:32-p271:32:32-p272:64:64-i64:64-i128:128-f80:128-n8:16:32:64-S128"
target triple = "x86_64-pc-linux-gnu"

%struct._cms_NAMEDCOLORLIST_struct = type { i32, i32, i32, [33 x i8], [33 x i8], ptr, ptr }
%struct._cmsNAMEDCOLOR = type { [256 x i8], [3 x i16], [16 x i16] }
%struct._cmsStage_struct = type { ptr, i32, i32, i32, i32, ptr, ptr, ptr, ptr, ptr }

@.str = private unnamed_addr constant [22 x i8] c"Color %d out of range\00", align 1

; Function Attrs: nounwind uwtable
define internal i32 @_cmsQuickFloor(double noundef %0) #0 {
  %2 = alloca double, align 8
  store double %0, ptr %2, align 8
  %3 = load double, ptr %2, align 8
  %4 = call double @llvm.floor.f64(double %3)
  %5 = fptosi double %4 to i32
  ret i32 %5
}

; Function Attrs: nounwind uwtable
define internal zeroext i16 @_cmsQuickFloorWord(double noundef %0) #0 {
  %2 = alloca double, align 8
  store double %0, ptr %2, align 8
  %3 = load double, ptr %2, align 8
  %4 = fsub double %3, 3.276700e+04
  %5 = call i32 @_cmsQuickFloor(double noundef %4)
  %6 = trunc i32 %5 to i16
  %7 = zext i16 %6 to i32
  %8 = add i32 %7, 32767
  %9 = trunc i32 %8 to i16
  ret i16 %9
}

; Function Attrs: nounwind uwtable
define internal zeroext i16 @_cmsQuickSaturateWord(double noundef %0) #0 {
  %2 = alloca i16, align 2
  %3 = alloca double, align 8
  store double %0, ptr %3, align 8
  %4 = load double, ptr %3, align 8
  %5 = fadd double %4, 5.000000e-01
  store double %5, ptr %3, align 8
  %6 = load double, ptr %3, align 8
  %7 = fcmp ole double %6, 0.000000e+00
  br i1 %7, label %8, label %9

8:                                                ; preds = %1
  store i16 0, ptr %2, align 2
  br label %16

9:                                                ; preds = %1
  %10 = load double, ptr %3, align 8
  %11 = fcmp oge double %10, 6.553500e+04
  br i1 %11, label %12, label %13

12:                                               ; preds = %9
  store i16 -1, ptr %2, align 2
  br label %16

13:                                               ; preds = %9
  %14 = load double, ptr %3, align 8
  %15 = call zeroext i16 @_cmsQuickFloorWord(double noundef %14)
  store i16 %15, ptr %2, align 2
  br label %16

16:                                               ; preds = %13, %12, %8
  %17 = load i16, ptr %2, align 2
  ret i16 %17
}

; Function Attrs: nounwind uwtable
define internal void @EvalNamedColor(ptr noundef %0, ptr noundef %1, ptr noundef %2) #0 {
  %4 = alloca ptr, align 8
  %5 = alloca ptr, align 8
  %6 = alloca ptr, align 8
  %7 = alloca ptr, align 8
  %8 = alloca i16, align 2
  %9 = alloca i32, align 4
  store ptr %0, ptr %4, align 8
  store ptr %1, ptr %5, align 8
  store ptr %2, ptr %6, align 8
  %10 = load ptr, ptr %6, align 8
  %11 = getelementptr inbounds %struct._cmsStage_struct, ptr %10, i32 0, i32 8
  %12 = load ptr, ptr %11, align 8
  store ptr %12, ptr %7, align 8
  %13 = load ptr, ptr %4, align 8
  %14 = getelementptr inbounds float, ptr %13, i64 0
  %15 = load float, ptr %14, align 4
  %16 = fpext float %15 to double
  %17 = fmul double %16, 6.553500e+04
  %18 = call zeroext i16 @_cmsQuickSaturateWord(double noundef %17)
  store i16 %18, ptr %8, align 2
  %19 = load i16, ptr %8, align 2
  %20 = zext i16 %19 to i32
  %21 = load ptr, ptr %7, align 8
  %22 = getelementptr inbounds %struct._cms_NAMEDCOLORLIST_struct, ptr %21, i32 0, i32 0
  %23 = load i32, ptr %22, align 8
  %24 = icmp uge i32 %20, %23
  br i1 %24, label %25, label %46

25:                                               ; preds = %3
  %26 = load ptr, ptr %7, align 8
  %27 = getelementptr inbounds %struct._cms_NAMEDCOLORLIST_struct, ptr %26, i32 0, i32 6
  %28 = load ptr, ptr %27, align 8
  %29 = load i16, ptr %8, align 2
  %30 = zext i16 %29 to i32
  call void (ptr, i32, ptr, ...) @cmsSignalError(ptr noundef %28, i32 noundef 2, ptr noundef @.str, i32 noundef %30)
  store i32 0, ptr %9, align 4
  br label %31

31:                                               ; preds = %42, %25
  %32 = load i32, ptr %9, align 4
  %33 = load ptr, ptr %7, align 8
  %34 = getelementptr inbounds %struct._cms_NAMEDCOLORLIST_struct, ptr %33, i32 0, i32 2
  %35 = load i32, ptr %34, align 8
  %36 = icmp ult i32 %32, %35
  br i1 %36, label %37, label %45

37:                                               ; preds = %31
  %38 = load ptr, ptr %5, align 8
  %39 = load i32, ptr %9, align 4
  %40 = zext i32 %39 to i64
  %41 = getelementptr inbounds float, ptr %38, i64 %40
  store float 0.000000e+00, ptr %41, align 4
  br label %42

42:                                               ; preds = %37
  %43 = load i32, ptr %9, align 4
  %44 = add i32 %43, 1
  store i32 %44, ptr %9, align 4
  br label %31, !llvm.loop !19

45:                                               ; preds = %31
  br label %77

46:                                               ; preds = %3
  store i32 0, ptr %9, align 4
  br label %47

47:                                               ; preds = %73, %46
  %48 = load i32, ptr %9, align 4
  %49 = load ptr, ptr %7, align 8
  %50 = getelementptr inbounds %struct._cms_NAMEDCOLORLIST_struct, ptr %49, i32 0, i32 2
  %51 = load i32, ptr %50, align 8
  %52 = icmp ult i32 %48, %51
  br i1 %52, label %53, label %76

53:                                               ; preds = %47
  %54 = load ptr, ptr %7, align 8
  %55 = getelementptr inbounds %struct._cms_NAMEDCOLORLIST_struct, ptr %54, i32 0, i32 5
  %56 = load ptr, ptr %55, align 8
  %57 = load i16, ptr %8, align 2
  %58 = zext i16 %57 to i64
  %59 = getelementptr inbounds %struct._cmsNAMEDCOLOR, ptr %56, i64 %58
  %60 = getelementptr inbounds %struct._cmsNAMEDCOLOR, ptr %59, i32 0, i32 2
  %61 = load i32, ptr %9, align 4
  %62 = zext i32 %61 to i64
  %63 = getelementptr inbounds [16 x i16], ptr %60, i64 0, i64 %62
  %64 = load i16, ptr %63, align 2
  %65 = zext i16 %64 to i32
  %66 = sitofp i32 %65 to double
  %67 = fdiv double %66, 6.553500e+04
  %68 = fptrunc double %67 to float
  %69 = load ptr, ptr %5, align 8
  %70 = load i32, ptr %9, align 4
  %71 = zext i32 %70 to i64
  %72 = getelementptr inbounds float, ptr %69, i64 %71
  store float %68, ptr %72, align 4
  br label %73

73:                                               ; preds = %53
  %74 = load i32, ptr %9, align 4
  %75 = add i32 %74, 1
  store i32 %75, ptr %9, align 4
  br label %47, !llvm.loop !20

76:                                               ; preds = %47
  br label %77

77:                                               ; preds = %76, %45
  ret void
}