; Function Attrs: nounwind uwtable
define internal void @EvalNamedColor(ptr nocapture noundef readonly %0, ptr nocapture noundef writeonly %1, ptr nocapture noundef readonly %2) #0 {
  %4 = getelementptr inbounds i8, ptr %2, i64 48
  %5 = load ptr, ptr %4, align 8
  %6 = load float, ptr %0, align 4
  %7 = fpext float %6 to double
  %8 = fmul double %7, 6.553500e+04
  %9 = fadd double %8, 5.000000e-01
  %10 = fcmp ugt double %9, 0.000000e+00
  br i1 %10, label %11, label %_cmsQuickSaturateWord.exit

11:                                               ; preds = %3
  %12 = fcmp ult double %9, 6.553500e+04
  br i1 %12, label %13, label %_cmsQuickSaturateWord.exit

13:                                               ; preds = %11
  %14 = fadd double %9, -3.276700e+04
  %15 = tail call double @llvm.floor.f64(double %14)
  %16 = fptosi double %15 to i32
  %17 = trunc i32 %16 to i16
  %18 = add i16 %17, 32767
  br label %_cmsQuickSaturateWord.exit

_cmsQuickSaturateWord.exit:                       ; preds = %3, %11, %13
  %.0.i = phi i16 [ %18, %13 ], [ 0, %3 ], [ -1, %11 ]
  %19 = zext i16 %.0.i to i32
  %20 = load i32, ptr %5, align 8
  %.not = icmp ugt i32 %20, %19
  br i1 %.not, label %.preheader, label %25

.preheader:                                       ; preds = %_cmsQuickSaturateWord.exit
  %21 = getelementptr inbounds i8, ptr %5, i64 8
  %22 = load i32, ptr %21, align 8
  %.not24 = icmp eq i32 %22, 0
  br i1 %.not24, label %.loopexit, label %.lr.ph22

.lr.ph22:                                         ; preds = %.preheader
  %23 = getelementptr inbounds i8, ptr %5, i64 80
  %24 = zext i16 %.0.i to i64
  br label %34

25:                                               ; preds = %_cmsQuickSaturateWord.exit
  %26 = getelementptr inbounds i8, ptr %5, i64 88
  %27 = load ptr, ptr %26, align 8
  tail call void (ptr, i32, ptr, ...) @cmsSignalError(ptr noundef %27, i32 noundef 2, ptr noundef nonnull @.str, i32 noundef %19) #12
  %28 = getelementptr inbounds i8, ptr %5, i64 8
  %29 = load i32, ptr %28, align 8
  %.not23 = icmp eq i32 %29, 0
  br i1 %.not23, label %.loopexit, label %.lr.ph

.lr.ph:                                           ; preds = %25, %.lr.ph
  %indvars.iv = phi i64 [ %indvars.iv.next, %.lr.ph ], [ 0, %25 ]
  %30 = getelementptr inbounds float, ptr %1, i64 %indvars.iv
  store float 0.000000e+00, ptr %30, align 4
  %indvars.iv.next = add nuw nsw i64 %indvars.iv, 1
  %31 = load i32, ptr %28, align 8
  %32 = zext i32 %31 to i64
  %33 = icmp ult i64 %indvars.iv.next, %32
  br i1 %33, label %.lr.ph, label %.loopexit, !llvm.loop !20

34:                                               ; preds = %.lr.ph22, %34
  %indvars.iv27 = phi i64 [ 0, %.lr.ph22 ], [ %indvars.iv.next28, %34 ]
  %35 = load ptr, ptr %23, align 8
  %36 = getelementptr inbounds %struct._cmsNAMEDCOLOR, ptr %35, i64 %24, i32 2, i64 %indvars.iv27
  %37 = load i16, ptr %36, align 2
  %38 = uitofp i16 %37 to double
  %39 = fdiv double %38, 6.553500e+04
  %40 = fptrunc double %39 to float
  %41 = getelementptr inbounds float, ptr %1, i64 %indvars.iv27
  store float %40, ptr %41, align 4
  %indvars.iv.next28 = add nuw nsw i64 %indvars.iv27, 1
  %42 = load i32, ptr %21, align 8
  %43 = zext i32 %42 to i64
  %44 = icmp ult i64 %indvars.iv.next28, %43
  br i1 %44, label %34, label %.loopexit, !llvm.loop !21

.loopexit:                                        ; preds = %.lr.ph, %34, %25, %.preheader
  ret void
}